(dp0
S'Nab'
p1
F5.0
sS'ELTS'
p2
F-0.062
sS'simp'
p3
F-0.006
sS'ECaN'
p4
F0.0
sS'Esyn'
p5
F0.0
sS'Qh'
p6
F-0.03
sS'gNa'
p7
F160.0
sS'eCa'
p8
F0.0007
sS'gCaNI'
p9
F0.0
sS'gCaNSil'
p10
F0.0
sS'ELSil'
p11
F-0.0605
sS'siN'
p12
F-0.005
sS'kCAN'
p13
F0.9
sS'sis'
p14
F-0.003
sS'Qhp'
p15
F-0.048
sS'kCa'
p16
F22500.0
sS'EK'
p17
F-0.075
sS'ehp'
p18
F0.001
sS'sihp'
p19
F0.006
sS'Cm'
p20
F0.045
sS'Iapp'
p21
F0.0
sS'kIP3'
p22
F1200000.0
sS'gL'
p23
F3.0
sS'gK'
p24
F30.0
sS'sim'
p25
F-0.0085
sS'tauhp'
p26
F0.001
sS'EL'
p27
F-0.0625
sS'Qs'
p28
F0.015
sS'gCaNS'
p29
F10.0
sS'Cab'
p30
F0.05
sS'kNa'
p31
F10.0
sS'siCAN'
p32
F-0.05
sS'gCaNTS'
p33
F0.0
sS'alpha'
p34
F0.066
sS'ELI'
p35
F-0.0625
sS'Qm'
p36
F-0.036
sS'Qn'
p37
F-0.03
sS'ENa'
p38
F0.045
sS'sih'
p39
F0.005
sS'gPI'
p40
F4.0
sS'gPTS'
p41
F5.0
sS'Qmp'
p42
F-0.04
sS'tauh'
p43
F0.015
sS'gsyn'
p44
F2.5
sS'taun'
p45
F0.03
sS'ELS'
p46
F-0.06
sS'taum'
p47
F0.001
sS'ks'
p48
F1.0
sS'taus'
p49
F0.015
sS'gPSil'
p50
F0.6
sS'gPS'
p51
F0.5
s.